target datalayout = "e-m:e-p270:32:32-p271:32:32-p272:64:64-i64:64-i128:128-f80:128-n8:16:32:64-S128"
target triple = "x86_64-pc-linux-gnu"

%struct.SDL_HIDAPI_Device = type { ptr, ptr, ptr, ptr, i16, i16, i16, ptr, %struct.SDL_GUID, i32, i32, i32, i32, i16, i16, i8, i32, i32, i32, ptr, ptr, ptr, ptr, %struct.SDL_AtomicInt, i32, ptr, i8, i8, i8, ptr, i32, ptr, ptr }
%struct.SDL_GUID = type { [16 x i8] }
%struct.SDL_AtomicInt = type { i32 }
%struct.SDL_DriverStadia_Context = type { i8, [64 x i8] }

@__const.HIDAPI_DriverStadia_RumbleJoystick.rumble_packet = private unnamed_addr constant [5 x i8] c"\05\00\00\00\00", align 1
@.str.3 = private unnamed_addr constant [28 x i8] c"Couldn't send rumble packet\00", align 1
@.str.4 = private unnamed_addr constant [32 x i8] c"That operation is not supported\00", align 1

; Function Attrs: nounwind uwtable
define internal zeroext i1 @HIDAPI_DriverStadia_RumbleJoystick(ptr noundef %0, ptr noundef %1, i16 noundef zeroext %2, i16 noundef zeroext %3) #0 {
  %5 = alloca i1, align 1
  %6 = alloca ptr, align 8
  %7 = alloca ptr, align 8
  %8 = alloca i16, align 2
  %9 = alloca i16, align 2
  %10 = alloca ptr, align 8
  %11 = alloca [5 x i8], align 1
  %12 = alloca i32, align 4
  store ptr %0, ptr %6, align 8
  store ptr %1, ptr %7, align 8
  store i16 %2, ptr %8, align 2
  store i16 %3, ptr %9, align 2
  call void @llvm.lifetime.start.p0(i64 8, ptr %10) #6
  %13 = load ptr, ptr %6, align 8
  %14 = getelementptr inbounds nuw %struct.SDL_HIDAPI_Device, ptr %13, i32 0, i32 20
  %15 = load ptr, ptr %14, align 8
  store ptr %15, ptr %10, align 8
  %16 = load ptr, ptr %10, align 8
  %17 = getelementptr inbounds nuw %struct.SDL_DriverStadia_Context, ptr %16, i32 0, i32 0
  %18 = load i8, ptr %17, align 1, !range !5, !noundef !6
  %19 = trunc i8 %18 to i1
  br i1 %19, label %20, label %50

20:                                               ; preds = %4
  call void @llvm.lifetime.start.p0(i64 5, ptr %11) #6
  call void @llvm.memcpy.p0.p0.i64(ptr align 1 %11, ptr align 1 @__const.HIDAPI_DriverStadia_RumbleJoystick.rumble_packet, i64 5, i1 false)
  %21 = load i16, ptr %8, align 2
  %22 = zext i16 %21 to i32
  %23 = and i32 %22, 255
  %24 = trunc i32 %23 to i8
  %25 = getelementptr inbounds [5 x i8], ptr %11, i64 0, i64 1
  store i8 %24, ptr %25, align 1
  %26 = load i16, ptr %8, align 2
  %27 = zext i16 %26 to i32
  %28 = ashr i32 %27, 8
  %29 = trunc i32 %28 to i8
  %30 = getelementptr inbounds [5 x i8], ptr %11, i64 0, i64 2
  store i8 %29, ptr %30, align 1
  %31 = load i16, ptr %9, align 2
  %32 = zext i16 %31 to i32
  %33 = and i32 %32, 255
  %34 = trunc i32 %33 to i8
  %35 = getelementptr inbounds [5 x i8], ptr %11, i64 0, i64 3
  store i8 %34, ptr %35, align 1
  %36 = load i16, ptr %9, align 2
  %37 = zext i16 %36 to i32
  %38 = ashr i32 %37, 8
  %39 = trunc i32 %38 to i8
  %40 = getelementptr inbounds [5 x i8], ptr %11, i64 0, i64 4
  store i8 %39, ptr %40, align 1
  %41 = load ptr, ptr %6, align 8
  %42 = getelementptr inbounds [5 x i8], ptr %11, i64 0, i64 0
  %43 = call i32 @SDL_HIDAPI_SendRumble(ptr noundef %41, ptr noundef %42, i32 noundef 5)
  %44 = sext i32 %43 to i64
  %45 = icmp ne i64 %44, 5
  br i1 %45, label %46, label %48

46:                                               ; preds = %20
  %47 = call zeroext i1 (ptr, ...) @SDL_SetError_REAL(ptr noundef @.str.3)
  store i1 %47, ptr %5, align 1
  store i32 1, ptr %12, align 4
  br label %49

48:                                               ; preds = %20
  store i1 true, ptr %5, align 1
  store i32 1, ptr %12, align 4
  br label %49

49:                                               ; preds = %48, %46
  call void @llvm.lifetime.end.p0(i64 5, ptr %11) #6
  br label %52

50:                                               ; preds = %4
  %51 = call zeroext i1 (ptr, ...) @SDL_SetError_REAL(ptr noundef @.str.4)
  store i1 %51, ptr %5, align 1
  store i32 1, ptr %12, align 4
  br label %52

52:                                               ; preds = %50, %49
  call void @llvm.lifetime.end.p0(i64 8, ptr %10) #6
  %53 = load i1, ptr %5, align 1
  ret i1 %53
}